target datalayout = "e-m:e-p270:32:32-p271:32:32-p272:64:64-i64:64-i128:128-f80:128-n8:16:32:64-S128"
target triple = "x86_64-pc-linux-gnu"

%"struct.pxrInternal_v0_24__pxrReserved__::pxr_double_conversion::PowersOfTenCache::CachedPower" = type { i64, i16, i16 }
%"class.pxrInternal_v0_24__pxrReserved__::pxr_double_conversion::DiyFp" = type <{ i64, i32, [4 x i8] }>

; Function Attrs: mustprogress nounwind uwtable
define linkonce_odr void @_ZN32pxrInternal_v0_24__pxrReserved__21pxr_double_conversion5DiyFpC2Emi(ptr noundef nonnull align 8 dereferenceable(12) %0, i64 noundef %1, i32 noundef %2) unnamed_addr #3 comdat align 2 {
  %4 = alloca ptr, align 8
  %5 = alloca i64, align 8
  %6 = alloca i32, align 4
  store ptr %0, ptr %4, align 8
  store i64 %1, ptr %5, align 8
  store i32 %2, ptr %6, align 4
  %7 = load ptr, ptr %4, align 8
  %8 = getelementptr inbounds nuw %"class.pxrInternal_v0_24__pxrReserved__::pxr_double_conversion::DiyFp", ptr %7, i32 0, i32 0
  %9 = load i64, ptr %5, align 8
  store i64 %9, ptr %8, align 8
  %10 = getelementptr inbounds nuw %"class.pxrInternal_v0_24__pxrReserved__::pxr_double_conversion::DiyFp", ptr %7, i32 0, i32 1
  %11 = load i32, ptr %6, align 4
  store i32 %11, ptr %10, align 8
  ret void
}

; Function Attrs: mustprogress uwtable
define void @_ZN32pxrInternal_v0_24__pxrReserved__21pxr_double_conversion16PowersOfTenCache36GetCachedPowerForBinaryExponentRangeEiiPNS0_5DiyFpEPi(i32 noundef %0, i32 noundef %1, ptr noundef %2, ptr noundef %3) #0 {
  %5 = alloca i32, align 4
  %6 = alloca i32, align 4
  %7 = alloca ptr, align 8
  %8 = alloca ptr, align 8
  %9 = alloca i32, align 4
  %10 = alloca double, align 8
  %11 = alloca i32, align 4
  %12 = alloca i32, align 4
  %13 = alloca %"struct.pxrInternal_v0_24__pxrReserved__::pxr_double_conversion::PowersOfTenCache::CachedPower", align 8
  %14 = alloca %"class.pxrInternal_v0_24__pxrReserved__::pxr_double_conversion::DiyFp", align 8
  store i32 %0, ptr %5, align 4
  store i32 %1, ptr %6, align 4
  store ptr %2, ptr %7, align 8
  store ptr %3, ptr %8, align 8
  store i32 64, ptr %9, align 4
  %15 = load i32, ptr %5, align 4
  %16 = load i32, ptr %9, align 4
  %17 = add nsw i32 %15, %16
  %18 = sub nsw i32 %17, 1
  %19 = sitofp i32 %18 to double
  %20 = fmul double %19, 0x3FD34413509F79FE
  %21 = call double @llvm.ceil.f64(double %20)
  store double %21, ptr %10, align 8
  store i32 348, ptr %11, align 4
  %22 = load i32, ptr %11, align 4
  %23 = load double, ptr %10, align 8
  %24 = fptosi double %23 to i32
  %25 = add nsw i32 %22, %24
  %26 = sub nsw i32 %25, 1
  %27 = sdiv i32 %26, 8
  %28 = add nsw i32 %27, 1
  store i32 %28, ptr %12, align 4
  %29 = load i32, ptr %12, align 4
  %30 = sext i32 %29 to i64
  %31 = getelementptr inbounds [87 x %"struct.pxrInternal_v0_24__pxrReserved__::pxr_double_conversion::PowersOfTenCache::CachedPower"], ptr @_ZN32pxrInternal_v0_24__pxrReserved__21pxr_double_conversion16PowersOfTenCacheL13kCachedPowersE, i64 0, i64 %30
  call void @llvm.memcpy.p0.p0.i64(ptr align 8 %13, ptr align 16 %31, i64 16, i1 false)
  %32 = getelementptr inbounds nuw %"struct.pxrInternal_v0_24__pxrReserved__::pxr_double_conversion::PowersOfTenCache::CachedPower", ptr %13, i32 0, i32 2
  %33 = load i16, ptr %32, align 2
  %34 = sext i16 %33 to i32
  %35 = load ptr, ptr %8, align 8
  store i32 %34, ptr %35, align 4
  %36 = getelementptr inbounds nuw %"struct.pxrInternal_v0_24__pxrReserved__::pxr_double_conversion::PowersOfTenCache::CachedPower", ptr %13, i32 0, i32 0
  %37 = load i64, ptr %36, align 8
  %38 = getelementptr inbounds nuw %"struct.pxrInternal_v0_24__pxrReserved__::pxr_double_conversion::PowersOfTenCache::CachedPower", ptr %13, i32 0, i32 1
  %39 = load i16, ptr %38, align 8
  %40 = sext i16 %39 to i32
  call void @_ZN32pxrInternal_v0_24__pxrReserved__21pxr_double_conversion5DiyFpC2Emi(ptr noundef nonnull align 8 dereferenceable(12) %14, i64 noundef %37, i32 noundef %40)
  %41 = load ptr, ptr %7, align 8
  call void @llvm.memcpy.p0.p0.i64(ptr align 8 %41, ptr align 8 %14, i64 12, i1 false)
  ret void
}