; Function Attrs: mustprogress nofree norecurse nosync nounwind willreturn memory(argmem: write) uwtable
define void @_ZN32pxrInternal_v0_24__pxrReserved__21pxr_double_conversion16PowersOfTenCache36GetCachedPowerForBinaryExponentRangeEiiPNS0_5DiyFpEPi(i32 noundef %0, i32 noundef %1, ptr nocapture noundef writeonly %2, ptr nocapture noundef writeonly %3) local_unnamed_addr #0 {
  %5 = add nsw i32 %0, 63
  %6 = sitofp i32 %5 to double
  %7 = fmul double %6, 0x3FD34413509F79FE
  %8 = tail call double @llvm.ceil.f64(double %7)
  %9 = fptosi double %8 to i32
  %10 = add nsw i32 %9, 347
  %11 = sdiv i32 %10, 8
  %12 = add nsw i32 %11, 1
  %13 = sext i32 %12 to i64
  %14 = getelementptr inbounds [87 x %"struct.pxrInternal_v0_24__pxrReserved__::pxr_double_conversion::PowersOfTenCache::CachedPower"], ptr @_ZN32pxrInternal_v0_24__pxrReserved__21pxr_double_conversion16PowersOfTenCacheL13kCachedPowersE, i64 0, i64 %13
  %.sroa.0.0.copyload = load i64, ptr %14, align 16
  %.sroa.2.0..sroa_idx = getelementptr inbounds i8, ptr %14, i64 8
  %.sroa.2.0.copyload = load i16, ptr %.sroa.2.0..sroa_idx, align 8
  %.sroa.3.0..sroa_idx = getelementptr inbounds i8, ptr %14, i64 10
  %.sroa.3.0.copyload = load i16, ptr %.sroa.3.0..sroa_idx, align 2
  %15 = sext i16 %.sroa.3.0.copyload to i32
  store i32 %15, ptr %3, align 4
  %16 = sext i16 %.sroa.2.0.copyload to i32
  store i64 %.sroa.0.0.copyload, ptr %2, align 8
  %.sroa.2.0..sroa_idx7 = getelementptr inbounds i8, ptr %2, i64 8
  store i32 %16, ptr %.sroa.2.0..sroa_idx7, align 8
  ret void
}